; Function Attrs: mustprogress uwtable
define void @_ZN32pxrInternal_v0_24__pxrReserved__18TsTest_SampleTimes8AddTimesERKSt6vectorIdSaIdEE(ptr noundef nonnull align 8 dereferenceable(216) %0, ptr nocapture noundef nonnull readonly align 8 dereferenceable(24) %1) local_unnamed_addr #3 align 2 {
  %3 = alloca %"struct.pxrInternal_v0_24__pxrReserved__::TsTest_SampleTimes::SampleTime", align 8
  %4 = load ptr, ptr %1, align 8
  %5 = getelementptr inbounds nuw i8, ptr %1, i64 8
  %6 = load ptr, ptr %5, align 8
  %.not8 = icmp eq ptr %4, %6
  br i1 %.not8, label %._crit_edge, label %.lr.ph

.lr.ph:                                           ; preds = %2
  %7 = getelementptr inbounds nuw i8, ptr %0, i64 168
  br label %8

8:                                                ; preds = %.lr.ph, %8
  %.sroa.05.09 = phi ptr [ %4, %.lr.ph ], [ %11, %8 ]
  %9 = load double, ptr %.sroa.05.09, align 8
  call void @_ZN32pxrInternal_v0_24__pxrReserved__18TsTest_SampleTimes10SampleTimeC1Ed(ptr noundef nonnull align 8 dereferenceable(9) %3, double noundef %9)
  %10 = call { ptr, i8 } @_ZNSt8_Rb_treeIN32pxrInternal_v0_24__pxrReserved__18TsTest_SampleTimes10SampleTimeES2_St9_IdentityIS2_ESt4lessIS2_ESaIS2_EE16_M_insert_uniqueIS2_EESt4pairISt17_Rb_tree_iteratorIS2_EbEOT_(ptr noundef nonnull align 8 dereferenceable(48) %7, ptr noundef nonnull align 8 dereferenceable(9) %3)
  %11 = getelementptr inbounds i8, ptr %.sroa.05.09, i64 8
  %.not = icmp eq ptr %11, %6
  br i1 %.not, label %._crit_edge, label %8

._crit_edge:                                      ; preds = %8, %2
  ret void
}